target datalayout = "e-m:e-p270:32:32-p271:32:32-p272:64:64-i64:64-i128:128-f80:128-n8:16:32:64-S128"
target triple = "x86_64-pc-linux-gnu"

%struct.AVAudioFifo = type { ptr, i32, i32, i32, i32, i32, i32 }

; Function Attrs: nounwind uwtable
define i32 @av_audio_fifo_read(ptr noundef %0, ptr noundef %1, i32 noundef %2) #0 {
  %4 = alloca i32, align 4
  %5 = alloca ptr, align 8
  %6 = alloca ptr, align 8
  %7 = alloca i32, align 4
  %8 = alloca i32, align 4
  %9 = alloca i32, align 4
  %10 = alloca i32, align 4
  store ptr %0, ptr %5, align 8, !tbaa !4
  store ptr %1, ptr %6, align 8, !tbaa !28
  store i32 %2, ptr %7, align 4, !tbaa !14
  call void @llvm.lifetime.start.p0(i64 4, ptr %8) #3
  call void @llvm.lifetime.start.p0(i64 4, ptr %9) #3
  %11 = load i32, ptr %7, align 4, !tbaa !14
  %12 = icmp slt i32 %11, 0
  br i1 %12, label %13, label %14

13:                                               ; preds = %3
  store i32 -22, ptr %4, align 4
  store i32 1, ptr %10, align 4
  br label %72

14:                                               ; preds = %3
  %15 = load i32, ptr %7, align 4, !tbaa !14
  %16 = load ptr, ptr %5, align 8, !tbaa !4
  %17 = getelementptr inbounds nuw %struct.AVAudioFifo, ptr %16, i32 0, i32 2
  %18 = load i32, ptr %17, align 4, !tbaa !31
  %19 = icmp sgt i32 %15, %18
  br i1 %19, label %20, label %24

20:                                               ; preds = %14
  %21 = load ptr, ptr %5, align 8, !tbaa !4
  %22 = getelementptr inbounds nuw %struct.AVAudioFifo, ptr %21, i32 0, i32 2
  %23 = load i32, ptr %22, align 4, !tbaa !31
  br label %26

24:                                               ; preds = %14
  %25 = load i32, ptr %7, align 4, !tbaa !14
  br label %26

26:                                               ; preds = %24, %20
  %27 = phi i32 [ %23, %20 ], [ %25, %24 ]
  store i32 %27, ptr %7, align 4, !tbaa !14
  %28 = load i32, ptr %7, align 4, !tbaa !14
  %29 = icmp ne i32 %28, 0
  br i1 %29, label %31, label %30

30:                                               ; preds = %26
  store i32 0, ptr %4, align 4
  store i32 1, ptr %10, align 4
  br label %72

31:                                               ; preds = %26
  %32 = load i32, ptr %7, align 4, !tbaa !14
  %33 = load ptr, ptr %5, align 8, !tbaa !4
  %34 = getelementptr inbounds nuw %struct.AVAudioFifo, ptr %33, i32 0, i32 6
  %35 = load i32, ptr %34, align 4, !tbaa !20
  %36 = mul nsw i32 %32, %35
  store i32 %36, ptr %9, align 4, !tbaa !14
  store i32 0, ptr %8, align 4, !tbaa !14
  br label %37

37:                                               ; preds = %62, %31
  %38 = load i32, ptr %8, align 4, !tbaa !14
  %39 = load ptr, ptr %5, align 8, !tbaa !4
  %40 = getelementptr inbounds nuw %struct.AVAudioFifo, ptr %39, i32 0, i32 1
  %41 = load i32, ptr %40, align 8, !tbaa !15
  %42 = icmp slt i32 %38, %41
  br i1 %42, label %43, label %65

43:                                               ; preds = %37
  %44 = load ptr, ptr %5, align 8, !tbaa !4
  %45 = getelementptr inbounds nuw %struct.AVAudioFifo, ptr %44, i32 0, i32 0
  %46 = load ptr, ptr %45, align 8, !tbaa !9
  %47 = load i32, ptr %8, align 4, !tbaa !14
  %48 = sext i32 %47 to i64
  %49 = getelementptr inbounds ptr, ptr %46, i64 %48
  %50 = load ptr, ptr %49, align 8, !tbaa !21
  %51 = load ptr, ptr %6, align 8, !tbaa !28
  %52 = load i32, ptr %8, align 4, !tbaa !14
  %53 = sext i32 %52 to i64
  %54 = getelementptr inbounds ptr, ptr %51, i64 %53
  %55 = load ptr, ptr %54, align 8, !tbaa !29
  %56 = load i32, ptr %9, align 4, !tbaa !14
  %57 = sext i32 %56 to i64
  %58 = call i32 @av_fifo_read(ptr noundef %50, ptr noundef %55, i64 noundef %57)
  %59 = icmp slt i32 %58, 0
  br i1 %59, label %60, label %61

60:                                               ; preds = %43
  store i32 -558323010, ptr %4, align 4
  store i32 1, ptr %10, align 4
  br label %72

61:                                               ; preds = %43
  br label %62

62:                                               ; preds = %61
  %63 = load i32, ptr %8, align 4, !tbaa !14
  %64 = add nsw i32 %63, 1
  store i32 %64, ptr %8, align 4, !tbaa !14
  br label %37, !llvm.loop !33

65:                                               ; preds = %37
  %66 = load i32, ptr %7, align 4, !tbaa !14
  %67 = load ptr, ptr %5, align 8, !tbaa !4
  %68 = getelementptr inbounds nuw %struct.AVAudioFifo, ptr %67, i32 0, i32 2
  %69 = load i32, ptr %68, align 4, !tbaa !31
  %70 = sub nsw i32 %69, %66
  store i32 %70, ptr %68, align 4, !tbaa !31
  %71 = load i32, ptr %7, align 4, !tbaa !14
  store i32 %71, ptr %4, align 4
  store i32 1, ptr %10, align 4
  br label %72

72:                                               ; preds = %65, %60, %30, %13
  call void @llvm.lifetime.end.p0(i64 4, ptr %9) #3
  call void @llvm.lifetime.end.p0(i64 4, ptr %8) #3
  %73 = load i32, ptr %4, align 4
  ret i32 %73
}