; Function Attrs: nounwind uwtable
define i32 @av_audio_fifo_read(ptr noundef captures(none) %0, ptr noundef readonly captures(none) %1, i32 noundef %2) local_unnamed_addr #0 {
  %4 = icmp slt i32 %2, 0
  br i1 %4, label %.loopexit, label %5

5:                                                ; preds = %3
  %6 = getelementptr inbounds nuw i8, ptr %0, i64 12
  %7 = load i32, ptr %6, align 4, !tbaa !24
  %. = tail call i32 @llvm.smin.i32(i32 %2, i32 %7)
  %.not = icmp eq i32 %., 0
  br i1 %.not, label %.loopexit, label %8

8:                                                ; preds = %5
  %9 = getelementptr inbounds nuw i8, ptr %0, i64 8
  %10 = load i32, ptr %9, align 8, !tbaa !12
  %11 = icmp sgt i32 %10, 0
  br i1 %11, label %.lr.ph, label %._crit_edge

.lr.ph:                                           ; preds = %8
  %12 = getelementptr inbounds nuw i8, ptr %0, i64 28
  %13 = load i32, ptr %12, align 4, !tbaa !18
  %14 = mul nsw i32 %13, %.
  %15 = sext i32 %14 to i64
  br label %20

16:                                               ; preds = %20
  %indvars.iv.next = add nuw nsw i64 %indvars.iv, 1
  %17 = load i32, ptr %9, align 8, !tbaa !12
  %18 = sext i32 %17 to i64
  %19 = icmp slt i64 %indvars.iv.next, %18
  br i1 %19, label %20, label %._crit_edge.loopexit, !llvm.loop !28

20:                                               ; preds = %.lr.ph, %16
  %indvars.iv = phi i64 [ 0, %.lr.ph ], [ %indvars.iv.next, %16 ]
  %21 = load ptr, ptr %0, align 8, !tbaa !4
  %22 = getelementptr inbounds nuw ptr, ptr %21, i64 %indvars.iv
  %23 = load ptr, ptr %22, align 8, !tbaa !20
  %24 = getelementptr inbounds nuw ptr, ptr %1, i64 %indvars.iv
  %25 = load ptr, ptr %24, align 8, !tbaa !26
  %26 = tail call i32 @av_fifo_read(ptr noundef %23, ptr noundef %25, i64 noundef %15) #5
  %27 = icmp slt i32 %26, 0
  br i1 %27, label %.loopexit, label %16

._crit_edge.loopexit:                             ; preds = %16
  %.pre = load i32, ptr %6, align 4, !tbaa !24
  br label %._crit_edge

._crit_edge:                                      ; preds = %._crit_edge.loopexit, %8
  %28 = phi i32 [ %.pre, %._crit_edge.loopexit ], [ %7, %8 ]
  %29 = sub nsw i32 %28, %.
  store i32 %29, ptr %6, align 4, !tbaa !24
  br label %.loopexit

.loopexit:                                        ; preds = %20, %5, %3, %._crit_edge
  %.0 = phi i32 [ %., %._crit_edge ], [ -22, %3 ], [ 0, %5 ], [ -558323010, %20 ]
  ret i32 %.0
}